; Function Attrs: mustprogress uwtable
define hidden void @_ZN2cv8ximgproc12segmentation21GraphSegmentationImpl6filterERKNS_3MatERS3_(ptr noundef nonnull readonly align 8 captures(none) dereferenceable(56) %0, ptr noundef nonnull align 8 dereferenceable(96) %1, ptr noundef nonnull align 8 dereferenceable(96) %2) local_unnamed_addr #3 align 2 personality ptr @__gxx_personality_v0 {
  %4 = alloca %"class.cv::Mat", align 8
  %5 = alloca %"class.cv::_OutputArray", align 8
  %6 = alloca %"class.cv::_InputArray", align 8
  %7 = alloca %"class.cv::_OutputArray", align 8
  call void @llvm.lifetime.start.p0(i64 96, ptr nonnull %4) #21
  call void @_ZN2cv3MatC1Ev(ptr noundef nonnull align 8 dereferenceable(96) %4) #21
  call void @llvm.lifetime.start.p0(i64 24, ptr nonnull %5) #21
  %8 = getelementptr inbounds nuw i8, ptr %5, i64 8
  %9 = getelementptr inbounds nuw i8, ptr %5, i64 16
  store i64 0, ptr %9, align 8
  store i32 33619968, ptr %5, align 8, !tbaa !3
  store ptr %4, ptr %8, align 8, !tbaa !10
  invoke void @_ZNK2cv3Mat9convertToERKNS_12_OutputArrayEidd(ptr noundef nonnull align 8 dereferenceable(96) %1, ptr noundef nonnull align 8 dereferenceable(24) %5, i32 noundef 5, double noundef 1.000000e+00, double noundef 0.000000e+00)
          to label %10 unwind label %19

10:                                               ; preds = %3
  call void @llvm.lifetime.end.p0(i64 24, ptr nonnull %5) #21
  call void @llvm.lifetime.start.p0(i64 24, ptr nonnull %6) #21
  %11 = getelementptr inbounds nuw i8, ptr %6, i64 16
  store i32 0, ptr %11, align 8, !tbaa !11
  %12 = getelementptr inbounds nuw i8, ptr %6, i64 20
  store i32 0, ptr %12, align 4, !tbaa !12
  store i32 16842752, ptr %6, align 8, !tbaa !3
  %13 = getelementptr inbounds nuw i8, ptr %6, i64 8
  store ptr %4, ptr %13, align 8, !tbaa !10
  call void @llvm.lifetime.start.p0(i64 24, ptr nonnull %7) #21
  %14 = getelementptr inbounds nuw i8, ptr %7, i64 8
  %15 = getelementptr inbounds nuw i8, ptr %7, i64 16
  store i64 0, ptr %15, align 8
  store i32 33619968, ptr %7, align 8, !tbaa !3
  store ptr %2, ptr %14, align 8, !tbaa !10
  %16 = getelementptr inbounds nuw i8, ptr %0, i64 8
  %17 = load double, ptr %16, align 8, !tbaa !13
  invoke void @_ZN2cv12GaussianBlurERKNS_11_InputArrayERKNS_12_OutputArrayENS_5Size_IiEEddiNS_13AlgorithmHintE(ptr noundef nonnull align 8 dereferenceable(24) %6, ptr noundef nonnull align 8 dereferenceable(24) %7, i64 0, double noundef %17, double noundef %17, i32 noundef 4, i32 noundef 0)
          to label %18 unwind label %21

18:                                               ; preds = %10
  call void @llvm.lifetime.end.p0(i64 24, ptr nonnull %7) #21
  call void @llvm.lifetime.end.p0(i64 24, ptr nonnull %6) #21
  call void @_ZN2cv3MatD1Ev(ptr noundef nonnull align 8 dereferenceable(96) %4) #21
  call void @llvm.lifetime.end.p0(i64 96, ptr nonnull %4) #21
  ret void

19:                                               ; preds = %3
  %20 = landingpad { ptr, i32 }
          cleanup
  call void @llvm.lifetime.end.p0(i64 24, ptr nonnull %5) #21
  br label %23

21:                                               ; preds = %10
  %22 = landingpad { ptr, i32 }
          cleanup
  call void @llvm.lifetime.end.p0(i64 24, ptr nonnull %7) #21
  call void @llvm.lifetime.end.p0(i64 24, ptr nonnull %6) #21
  br label %23

23:                                               ; preds = %21, %19
  %.pn9.pn.pn = phi { ptr, i32 } [ %22, %21 ], [ %20, %19 ]
  call void @_ZN2cv3MatD1Ev(ptr noundef nonnull align 8 dereferenceable(96) %4) #21
  call void @llvm.lifetime.end.p0(i64 96, ptr nonnull %4) #21
  resume { ptr, i32 } %.pn9.pn.pn
}